target datalayout = "e-m:e-p270:32:32-p271:32:32-p272:64:64-i64:64-i128:128-f80:128-n8:16:32:64-S128"
target triple = "x86_64-pc-linux-gnu"

%struct.ident_t = type { i32, i32, i32, i32, ptr }
%struct.t_commrec = type <{ i8, [3 x i8], i32, i32, i32, i32, [4 x i8], ptr, ptr, i32, [4 x i8], ptr, i32, i32, %struct.gmx_nodecomm_t, %"class.std::unique_ptr.61", %"class.std::unique_ptr.69", ptr, ptr, i32, [4 x i8] }>
%struct.gmx_nodecomm_t = type { i8, ptr, i32, ptr }
%"class.std::unique_ptr.61" = type { %"struct.std::__uniq_ptr_data.62" }
%"struct.std::__uniq_ptr_data.62" = type { %"class.std::__uniq_ptr_impl.63" }
%"class.std::__uniq_ptr_impl.63" = type { %"class.std::tuple.64" }
%"class.std::tuple.64" = type { %"struct.std::_Tuple_impl.65" }
%"struct.std::_Tuple_impl.65" = type { %"struct.std::_Head_base.68" }
%"struct.std::_Head_base.68" = type { ptr }
%"class.std::unique_ptr.69" = type { %"struct.std::__uniq_ptr_data.70" }
%"struct.std::__uniq_ptr_data.70" = type { %"class.std::__uniq_ptr_impl.71" }
%"class.std::__uniq_ptr_impl.71" = type { %"class.std::tuple.72" }
%"class.std::tuple.72" = type { %"struct.std::_Tuple_impl.73" }
%"struct.std::_Tuple_impl.73" = type { %"struct.std::_Head_base.76" }
%"struct.std::_Head_base.76" = type { ptr }

@_ZTISt9exception = external constant ptr
@debug = external global ptr, align 8
@.str.19 = private unnamed_addr constant [79 x i8] c"On rank %2d, thread %2d, index %2d, core %2d the affinity setting returned %d\0A\00", align 1
@.gomp_critical_user_.reduction.var = common global [8 x i32] zeroinitializer, align 8
@1 = private unnamed_addr constant %struct.ident_t { i32 0, i32 18, i32 0, i32 22, ptr @0 }, align 8

; Function Attrs: alwaysinline norecurse nounwind uwtable
define internal void @_ZL12set_affinityPK9t_commreciiiiPKiPN3gmx21IThreadAffinityAccessE.omp_outlined(ptr noalias noundef %0, ptr noalias noundef %1, ptr noundef nonnull align 4 dereferenceable(4) %2, ptr noundef nonnull align 4 dereferenceable(4) %3, ptr noundef nonnull align 4 dereferenceable(4) %4, ptr noundef nonnull align 8 dereferenceable(8) %5, ptr noundef nonnull align 8 dereferenceable(8) %6, ptr noundef nonnull align 4 dereferenceable(4) %7, ptr noundef nonnull align 8 dereferenceable(8) %8) #16 personality ptr @__gxx_personality_v0 {
  %10 = alloca ptr, align 8
  %11 = alloca ptr, align 8
  %12 = alloca ptr, align 8
  %13 = alloca ptr, align 8
  %14 = alloca ptr, align 8
  %15 = alloca ptr, align 8
  %16 = alloca ptr, align 8
  %17 = alloca ptr, align 8
  %18 = alloca ptr, align 8
  %19 = alloca i32, align 4
  %20 = alloca i32, align 4
  %21 = alloca i32, align 4
  %22 = alloca i32, align 4
  %23 = alloca i32, align 4
  %24 = alloca ptr, align 8
  %25 = alloca i32, align 4
  %26 = alloca i8, align 1
  %27 = alloca ptr, align 8
  %28 = alloca [1 x ptr], align 8
  store ptr %0, ptr %10, align 8, !tbaa !15
  store ptr %1, ptr %11, align 8, !tbaa !15
  store ptr %2, ptr %12, align 8, !tbaa !15
  store ptr %3, ptr %13, align 8, !tbaa !15
  store ptr %4, ptr %14, align 8, !tbaa !15
  store ptr %5, ptr %15, align 8, !tbaa !70
  store ptr %6, ptr %16, align 8, !tbaa !258
  store ptr %7, ptr %17, align 8, !tbaa !15
  store ptr %8, ptr %18, align 8, !tbaa !260
  %29 = load ptr, ptr %12, align 8, !tbaa !15
  %30 = load ptr, ptr %13, align 8, !tbaa !15
  %31 = load ptr, ptr %14, align 8, !tbaa !15
  %32 = load ptr, ptr %15, align 8, !tbaa !70
  %33 = load ptr, ptr %16, align 8, !tbaa !258
  %34 = load ptr, ptr %17, align 8, !tbaa !15
  %35 = load ptr, ptr %18, align 8, !tbaa !260
  call void @llvm.lifetime.start.p0(i64 4, ptr %19) #2
  store i32 0, ptr %19, align 4, !tbaa !11
  call void @llvm.lifetime.start.p0(i64 4, ptr %20) #2
  call void @llvm.lifetime.start.p0(i64 4, ptr %21) #2
  call void @llvm.lifetime.start.p0(i64 4, ptr %22) #2
  call void @llvm.lifetime.start.p0(i64 4, ptr %23) #2
  %36 = invoke noundef i32 @_Z22gmx_omp_get_thread_numv()
          to label %37 unwind label %54

37:                                               ; preds = %9
  store i32 %36, ptr %20, align 4, !tbaa !11
  %38 = load i32, ptr %29, align 4, !tbaa !11
  %39 = load i32, ptr %20, align 4, !tbaa !11
  %40 = add nsw i32 %38, %39
  store i32 %40, ptr %21, align 4, !tbaa !11
  %41 = load i32, ptr %30, align 4, !tbaa !11
  %42 = load i32, ptr %21, align 4, !tbaa !11
  %43 = load i32, ptr %31, align 4, !tbaa !11
  %44 = mul nsw i32 %42, %43
  %45 = add nsw i32 %41, %44
  store i32 %45, ptr %22, align 4, !tbaa !11
  %46 = load ptr, ptr %32, align 8, !tbaa !15
  %47 = icmp ne ptr %46, null
  br i1 %47, label %48, label %58

48:                                               ; preds = %37
  %49 = load ptr, ptr %32, align 8, !tbaa !15
  %50 = load i32, ptr %22, align 4, !tbaa !11
  %51 = sext i32 %50 to i64
  %52 = getelementptr inbounds i32, ptr %49, i64 %51
  %53 = load i32, ptr %52, align 4, !tbaa !11
  store i32 %53, ptr %23, align 4, !tbaa !11
  br label %60

54:                                               ; preds = %9
  %55 = landingpad { ptr, i32 }
          catch ptr @_ZTISt9exception
          catch ptr null
  %56 = extractvalue { ptr, i32 } %55, 0
  store ptr %56, ptr %24, align 8
  %57 = extractvalue { ptr, i32 } %55, 1
  store i32 %57, ptr %25, align 4
  br label %94

58:                                               ; preds = %37
  %59 = load i32, ptr %22, align 4, !tbaa !11
  store i32 %59, ptr %23, align 4, !tbaa !11
  br label %60

60:                                               ; preds = %58, %48
  call void @llvm.lifetime.start.p0(i64 1, ptr %26) #2
  %61 = load ptr, ptr %33, align 8, !tbaa !4
  %62 = load i32, ptr %23, align 4, !tbaa !11
  %63 = load ptr, ptr %61, align 8, !tbaa !47
  %64 = getelementptr inbounds ptr, ptr %63, i64 1
  %65 = load ptr, ptr %64, align 8
  %66 = invoke noundef zeroext i1 %65(ptr noundef nonnull align 8 dereferenceable(8) %61, i32 noundef %62)
          to label %67 unwind label %89

67:                                               ; preds = %60
  %68 = zext i1 %66 to i8
  store i8 %68, ptr %26, align 1, !tbaa !54
  %69 = load i8, ptr %26, align 1, !tbaa !54, !range !52, !noundef !53
  %70 = trunc i8 %69 to i1
  %71 = select i1 %70, i32 1, i32 0
  %72 = load i32, ptr %19, align 4, !tbaa !11
  %73 = add nsw i32 %72, %71
  store i32 %73, ptr %19, align 4, !tbaa !11
  %74 = load ptr, ptr @debug, align 8, !tbaa !111
  %75 = icmp ne ptr %74, null
  br i1 %75, label %76, label %93

76:                                               ; preds = %67
  %77 = load ptr, ptr @debug, align 8, !tbaa !111
  %78 = load ptr, ptr %35, align 8, !tbaa !33
  %79 = getelementptr inbounds nuw %struct.t_commrec, ptr %78, i32 0, i32 5
  %80 = load i32, ptr %79, align 8, !tbaa !110
  %81 = invoke noundef i32 @_Z22gmx_omp_get_thread_numv()
          to label %82 unwind label %89

82:                                               ; preds = %76
  %83 = load i32, ptr %22, align 4, !tbaa !11
  %84 = load i32, ptr %23, align 4, !tbaa !11
  %85 = load i8, ptr %26, align 1, !tbaa !54, !range !52, !noundef !53
  %86 = trunc i8 %85 to i1
  %87 = select i1 %86, i32 1, i32 0
  %88 = call i32 (ptr, ptr, ...) @fprintf(ptr noundef %77, ptr noundef @.str.19, i32 noundef %80, i32 noundef %81, i32 noundef %83, i32 noundef %84, i32 noundef %87) #2
  br label %93

89:                                               ; preds = %76, %60
  %90 = landingpad { ptr, i32 }
          catch ptr @_ZTISt9exception
          catch ptr null
  %91 = extractvalue { ptr, i32 } %90, 0
  store ptr %91, ptr %24, align 8
  %92 = extractvalue { ptr, i32 } %90, 1
  store i32 %92, ptr %25, align 4
  call void @llvm.lifetime.end.p0(i64 1, ptr %26) #2
  br label %94

93:                                               ; preds = %82, %67
  call void @llvm.lifetime.end.p0(i64 1, ptr %26) #2
  call void @llvm.lifetime.end.p0(i64 4, ptr %23) #2
  call void @llvm.lifetime.end.p0(i64 4, ptr %22) #2
  call void @llvm.lifetime.end.p0(i64 4, ptr %21) #2
  call void @llvm.lifetime.end.p0(i64 4, ptr %20) #2
  br label %104

94:                                               ; preds = %89, %54
  call void @llvm.lifetime.end.p0(i64 4, ptr %23) #2
  call void @llvm.lifetime.end.p0(i64 4, ptr %22) #2
  call void @llvm.lifetime.end.p0(i64 4, ptr %21) #2
  call void @llvm.lifetime.end.p0(i64 4, ptr %20) #2
  br label %95

95:                                               ; preds = %94
  %96 = load i32, ptr %25, align 4
  %97 = call i32 @llvm.eh.typeid.for.p0(ptr @_ZTISt9exception) #2
  %98 = icmp eq i32 %96, %97
  br i1 %98, label %99, label %120

99:                                               ; preds = %95
  call void @llvm.lifetime.start.p0(i64 8, ptr %27) #2
  %100 = load ptr, ptr %24, align 8
  %101 = call ptr @__cxa_begin_catch(ptr %100) #2
  store ptr %101, ptr %27, align 8
  %102 = load ptr, ptr %27, align 8, !tbaa !262
  invoke void @_ZN3gmx28processExceptionAsFatalErrorERKSt9exception(ptr noundef nonnull align 8 dereferenceable(8) %102) #22
          to label %103 unwind label %117

103:                                              ; preds = %99
  unreachable

104:                                              ; preds = %93
  %105 = getelementptr inbounds [1 x ptr], ptr %28, i64 0, i64 0
  store ptr %19, ptr %105, align 8
  %106 = load ptr, ptr %10, align 8
  %107 = load i32, ptr %106, align 4, !tbaa !11
  %108 = call i32 @__kmpc_reduce_nowait(ptr @1, i32 %107, i32 1, i64 8, ptr %28, ptr @_ZL12set_affinityPK9t_commreciiiiPKiPN3gmx21IThreadAffinityAccessE.omp_outlined.omp.reduction.reduction_func, ptr @.gomp_critical_user_.reduction.var)
  switch i32 %108, label %116 [
    i32 1, label %109
    i32 2, label %113
  ]

109:                                              ; preds = %104
  %110 = load i32, ptr %34, align 4, !tbaa !11
  %111 = load i32, ptr %19, align 4, !tbaa !11
  %112 = add nsw i32 %110, %111
  store i32 %112, ptr %34, align 4, !tbaa !11
  call void @__kmpc_end_reduce_nowait(ptr @1, i32 %107, ptr @.gomp_critical_user_.reduction.var)
  br label %116

113:                                              ; preds = %104
  %114 = load i32, ptr %19, align 4, !tbaa !11
  %115 = atomicrmw add ptr %34, i32 %114 monotonic, align 4
  br label %116

116:                                              ; preds = %113, %109, %104
  call void @llvm.lifetime.end.p0(i64 4, ptr %19) #2
  ret void

117:                                              ; preds = %99
  %118 = landingpad { ptr, i32 }
          catch ptr null
  %119 = extractvalue { ptr, i32 } %118, 0
  call void @__clang_call_terminate(ptr %119) #20
  unreachable

120:                                              ; preds = %95
  %121 = load ptr, ptr %24, align 8
  call void @__clang_call_terminate(ptr %121) #20
  unreachable
}