; Function Attrs: alwaysinline norecurse nounwind uwtable
define internal void @_ZL12set_affinityPK9t_commreciiiiPKiPN3gmx21IThreadAffinityAccessE.omp_outlined(ptr noalias noundef readonly captures(none) %0, ptr noalias readnone captures(none) %1, ptr noundef nonnull readonly align 4 captures(none) dereferenceable(4) %2, ptr noundef nonnull readonly align 4 captures(none) dereferenceable(4) %3, ptr noundef nonnull readonly align 4 captures(none) dereferenceable(4) %4, ptr noundef nonnull readonly align 8 captures(none) dereferenceable(8) %5, ptr noundef nonnull readonly align 8 captures(none) dereferenceable(8) %6, ptr noundef nonnull align 4 captures(none) dereferenceable(4) %7, ptr noundef nonnull readonly align 8 captures(none) dereferenceable(8) %8) #16 personality ptr @__gxx_personality_v0 {
  %10 = alloca i32, align 4
  %11 = alloca [1 x ptr], align 8
  call void @llvm.lifetime.start.p0(i64 4, ptr nonnull %10) #21
  %12 = invoke noundef i32 @_Z22gmx_omp_get_thread_numv()
          to label %13 unwind label %25

13:                                               ; preds = %9
  %14 = load i32, ptr %2, align 4, !tbaa !4
  %15 = add nsw i32 %14, %12
  %16 = load i32, ptr %3, align 4, !tbaa !4
  %17 = load i32, ptr %4, align 4, !tbaa !4
  %18 = mul nsw i32 %17, %15
  %19 = add nsw i32 %18, %16
  %20 = load ptr, ptr %5, align 8, !tbaa !130
  %.not = icmp eq ptr %20, null
  br i1 %.not, label %27, label %21

21:                                               ; preds = %13
  %22 = sext i32 %19 to i64
  %23 = getelementptr inbounds i32, ptr %20, i64 %22
  %24 = load i32, ptr %23, align 4, !tbaa !4
  br label %27

25:                                               ; preds = %9
  %26 = landingpad { ptr, i32 }
          catch ptr @_ZTISt9exception
          catch ptr null
  br label %48

27:                                               ; preds = %13, %21
  %.0 = phi i32 [ %24, %21 ], [ %19, %13 ]
  %28 = load ptr, ptr %6, align 8, !tbaa !132
  %29 = load ptr, ptr %28, align 8, !tbaa !31
  %30 = getelementptr inbounds nuw i8, ptr %29, i64 8
  %31 = load ptr, ptr %30, align 8
  %32 = invoke noundef zeroext i1 %31(ptr noundef nonnull align 8 dereferenceable(8) %28, i32 noundef %.0)
          to label %33 unwind label %43

33:                                               ; preds = %27
  %34 = zext i1 %32 to i32
  store i32 %34, ptr %10, align 4, !tbaa !4
  %35 = load ptr, ptr @debug, align 8, !tbaa !135
  %.not24 = icmp eq ptr %35, null
  br i1 %.not24, label %45, label %36

36:                                               ; preds = %33
  %37 = load ptr, ptr %8, align 8, !tbaa !128
  %38 = getelementptr inbounds nuw i8, ptr %37, i64 16
  %39 = load i32, ptr %38, align 8, !tbaa !134
  %40 = invoke noundef i32 @_Z22gmx_omp_get_thread_numv()
          to label %41 unwind label %43

41:                                               ; preds = %36
  %42 = tail call i32 (ptr, ptr, ...) @fprintf(ptr noundef nonnull %35, ptr noundef nonnull @.str.19, i32 noundef %39, i32 noundef %40, i32 noundef %19, i32 noundef %.0, i32 noundef %34) #21
  br label %45

43:                                               ; preds = %36, %27
  %44 = landingpad { ptr, i32 }
          catch ptr @_ZTISt9exception
          catch ptr null
  br label %48

45:                                               ; preds = %41, %33
  store ptr %10, ptr %11, align 8
  %46 = load i32, ptr %0, align 4, !tbaa !4
  %47 = call i32 @__kmpc_reduce_nowait(ptr nonnull @1, i32 %46, i32 1, i64 8, ptr nonnull %11, ptr nonnull @_ZL12set_affinityPK9t_commreciiiiPKiPN3gmx21IThreadAffinityAccessE.omp_outlined.omp.reduction.reduction_func, ptr nonnull @.gomp_critical_user_.reduction.var)
  switch i32 %47, label %61 [
    i32 1, label %54
    i32 2, label %58
  ]

48:                                               ; preds = %43, %25
  %.pn = phi { ptr, i32 } [ %44, %43 ], [ %26, %25 ]
  %.020 = extractvalue { ptr, i32 } %.pn, 0
  %.021 = extractvalue { ptr, i32 } %.pn, 1
  %49 = tail call i32 @llvm.eh.typeid.for.p0(ptr nonnull @_ZTISt9exception) #21
  %50 = icmp eq i32 %.021, %49
  br i1 %50, label %51, label %65

51:                                               ; preds = %48
  %52 = tail call ptr @__cxa_begin_catch(ptr %.020) #21
  invoke void @_ZN3gmx28processExceptionAsFatalErrorERKSt9exception(ptr noundef nonnull align 8 dereferenceable(8) %52) #26
          to label %53 unwind label %62

53:                                               ; preds = %51
  unreachable

54:                                               ; preds = %45
  %55 = load i32, ptr %7, align 4, !tbaa !4
  %56 = load i32, ptr %10, align 4, !tbaa !4
  %57 = add nsw i32 %56, %55
  store i32 %57, ptr %7, align 4, !tbaa !4
  call void @__kmpc_end_reduce_nowait(ptr nonnull @1, i32 %46, ptr nonnull @.gomp_critical_user_.reduction.var)
  br label %61

58:                                               ; preds = %45
  %59 = load i32, ptr %10, align 4, !tbaa !4
  %60 = atomicrmw add ptr %7, i32 %59 monotonic, align 4
  br label %61

61:                                               ; preds = %58, %54, %45
  call void @llvm.lifetime.end.p0(i64 4, ptr nonnull %10) #21
  ret void

62:                                               ; preds = %51
  %63 = landingpad { ptr, i32 }
          catch ptr null
  %64 = extractvalue { ptr, i32 } %63, 0
  tail call void @__clang_call_terminate(ptr %64) #24
  unreachable

65:                                               ; preds = %48
  tail call void @__clang_call_terminate(ptr %.020) #24
  unreachable
}